; ModuleID = 'source-C-CXX/4/932.c'
source_filename = "source-C-CXX/4/932.c"
target datalayout = "e-m:e-p270:32:32-p271:32:32-p272:64:64-i64:64-f80:128-n8:16:32:64-S128"
target triple = "x86_64-pc-linux-gnu"

@.str = private unnamed_addr constant [4 x i8] c"%lf\00", align 1
@.str.1 = private unnamed_addr constant [6 x i8] c"%s\0A%s\00", align 1
@.str.2 = private unnamed_addr constant [6 x i8] c"error\00", align 1
@.str.3 = private unnamed_addr constant [3 x i8] c"no\00", align 1
@.str.4 = private unnamed_addr constant [4 x i8] c"yes\00", align 1

; Function Attrs: nofree nounwind sspstrong uwtable
define dso_local i32 @main() local_unnamed_addr #0 {
  %1 = alloca [501 x i8], align 16
  %2 = alloca [501 x i8], align 16
  %3 = alloca double, align 8
  %4 = getelementptr inbounds [501 x i8], [501 x i8]* %1, i64 0, i64 0
  call void @llvm.lifetime.start.p0i8(i64 501, i8* nonnull %4) #4
  %5 = getelementptr inbounds [501 x i8], [501 x i8]* %2, i64 0, i64 0
  call void @llvm.lifetime.start.p0i8(i64 501, i8* nonnull %5) #4
  %6 = bitcast double* %3 to i8*
  call void @llvm.lifetime.start.p0i8(i64 8, i8* nonnull %6) #4
  %7 = call i32 (i8*, ...) @__isoc99_scanf(i8* getelementptr inbounds ([4 x i8], [4 x i8]* @.str, i64 0, i64 0), double* nonnull %3)
  %8 = call i32 (i8*, ...) @__isoc99_scanf(i8* getelementptr inbounds ([6 x i8], [6 x i8]* @.str.1, i64 0, i64 0), i8* nonnull %4, i8* nonnull %5)
  %9 = call i64 @strlen(i8* noundef nonnull %4) #5
  %10 = uitofp i64 %9 to double
  %11 = call i64 @strlen(i8* noundef nonnull %5) #5
  %12 = uitofp i64 %11 to double
  %13 = fcmp une double %12, %10
  br i1 %13, label %65, label %14

14:                                               ; preds = %0
  %15 = icmp eq i64 %11, 0
  br i1 %15, label %54, label %16

16:                                               ; preds = %14, %29
  %17 = phi i64 [ %31, %29 ], [ 0, %14 ]
  %18 = phi i32 [ %30, %29 ], [ 0, %14 ]
  %19 = getelementptr inbounds [501 x i8], [501 x i8]* %1, i64 0, i64 %17
  %20 = load i8, i8* %19, align 1, !tbaa !5
  switch i8 %20, label %21 [
    i8 65, label %23
    i8 84, label %23
    i8 67, label %23
    i8 71, label %23
  ]

21:                                               ; preds = %16
  %22 = add nsw i32 %18, 1
  br label %23

23:                                               ; preds = %16, %16, %16, %16, %21
  %24 = phi i32 [ %22, %21 ], [ %18, %16 ], [ %18, %16 ], [ %18, %16 ], [ %18, %16 ]
  %25 = getelementptr inbounds [501 x i8], [501 x i8]* %2, i64 0, i64 %17
  %26 = load i8, i8* %25, align 1, !tbaa !5
  switch i8 %26, label %27 [
    i8 65, label %29
    i8 84, label %29
    i8 67, label %29
    i8 71, label %29
  ]

27:                                               ; preds = %23
  %28 = add nsw i32 %24, 1
  br label %29

29:                                               ; preds = %23, %23, %23, %23, %27
  %30 = phi i32 [ %28, %27 ], [ %24, %23 ], [ %24, %23 ], [ %24, %23 ], [ %24, %23 ]
  %31 = add nuw i64 %17, 1
  %32 = trunc i64 %31 to i32
  %33 = sitofp i32 %32 to double
  %34 = fcmp olt double %33, %12
  br i1 %34, label %16, label %35, !llvm.loop !8

35:                                               ; preds = %29
  %36 = icmp eq i32 %30, 0
  br i1 %36, label %37, label %65

37:                                               ; preds = %35
  br i1 %15, label %54, label %38

38:                                               ; preds = %37, %38
  %39 = phi i64 [ %48, %38 ], [ 0, %37 ]
  %40 = phi i32 [ %47, %38 ], [ 0, %37 ]
  %41 = getelementptr inbounds [501 x i8], [501 x i8]* %1, i64 0, i64 %39
  %42 = load i8, i8* %41, align 1, !tbaa !5
  %43 = getelementptr inbounds [501 x i8], [501 x i8]* %2, i64 0, i64 %39
  %44 = load i8, i8* %43, align 1, !tbaa !5
  %45 = icmp eq i8 %42, %44
  %46 = zext i1 %45 to i32
  %47 = add nuw nsw i32 %40, %46
  %48 = add nuw i64 %39, 1
  %49 = trunc i64 %48 to i32
  %50 = sitofp i32 %49 to double
  %51 = fcmp olt double %50, %12
  br i1 %51, label %38, label %52, !llvm.loop !10

52:                                               ; preds = %38
  %53 = sitofp i32 %47 to double
  br label %54

54:                                               ; preds = %14, %52, %37
  %55 = phi double [ 0.000000e+00, %37 ], [ %53, %52 ], [ 0.000000e+00, %14 ]
  %56 = fdiv double %55, %10
  %57 = load double, double* %3, align 8, !tbaa !11
  %58 = fcmp ugt double %56, %57
  br i1 %58, label %62, label %59

59:                                               ; preds = %54
  %60 = call i32 (i8*, ...) @printf(i8* nonnull dereferenceable(1) getelementptr inbounds ([3 x i8], [3 x i8]* @.str.3, i64 0, i64 0))
  %61 = load double, double* %3, align 8, !tbaa !11
  br label %62

62:                                               ; preds = %59, %54
  %63 = phi double [ %61, %59 ], [ %57, %54 ]
  %64 = fcmp ogt double %56, %63
  br i1 %64, label %65, label %68

65:                                               ; preds = %62, %35, %0
  %66 = phi i8* [ getelementptr inbounds ([6 x i8], [6 x i8]* @.str.2, i64 0, i64 0), %0 ], [ getelementptr inbounds ([6 x i8], [6 x i8]* @.str.2, i64 0, i64 0), %35 ], [ getelementptr inbounds ([4 x i8], [4 x i8]* @.str.4, i64 0, i64 0), %62 ]
  %67 = call i32 (i8*, ...) @printf(i8* nonnull dereferenceable(1) %66)
  br label %68

68:                                               ; preds = %65, %62
  call void @llvm.lifetime.end.p0i8(i64 8, i8* nonnull %6) #4
  call void @llvm.lifetime.end.p0i8(i64 501, i8* nonnull %5) #4
  call void @llvm.lifetime.end.p0i8(i64 501, i8* nonnull %4) #4
  ret i32 0
}

; Function Attrs: argmemonly mustprogress nofree nosync nounwind willreturn
declare void @llvm.lifetime.start.p0i8(i64 immarg, i8* nocapture) #1

; Function Attrs: nofree nounwind
declare noundef i32 @__isoc99_scanf(i8* nocapture noundef readonly, ...) local_unnamed_addr #2

; Function Attrs: argmemonly mustprogress nofree nounwind readonly willreturn
declare i64 @strlen(i8* nocapture) local_unnamed_addr #3

; Function Attrs: nofree nounwind
declare noundef i32 @printf(i8* nocapture noundef readonly, ...) local_unnamed_addr #2

; Function Attrs: argmemonly mustprogress nofree nosync nounwind willreturn
declare void @llvm.lifetime.end.p0i8(i64 immarg, i8* nocapture) #1


!llvm.module.flags = !{!0, !1, !2, !3}
!llvm.ident = !{!4}

!0 = !{i32 1, !"wchar_size", i32 4}
!1 = !{i32 7, !"PIC Level", i32 2}
!2 = !{i32 7, !"PIE Level", i32 2}
!3 = !{i32 7, !"uwtable", i32 1}
!4 = !{!"clang version 13.0.0"}
!5 = !{!6, !6, i64 0}
!6 = !{!"omnipotent char", !7, i64 0}
!7 = !{!"Simple C/C++ TBAA"}
!8 = distinct !{!8, !9}
!9 = !{!"llvm.loop.mustprogress"}
!10 = distinct !{!10, !9}
!11 = !{!12, !12, i64 0}
!12 = !{!"double", !6, i64 0}
